
LCD.elf:     file format elf32-avr

Sections:
Idx Name          Size      VMA       LMA       File off  Algn
  0 .data         00000000  00800100  00800100  00000698  2**0
                  ALLOC, LOAD, DATA
  1 .text         00000080  00000000  00000000  00000054  2**1
                  CONTENTS, ALLOC, LOAD, READONLY, CODE
  2 .comment      0000002f  00000000  00000000  00000698  2**0
                  CONTENTS, READONLY
  3 .debug_aranges 00000080  00000000  00000000  000006c7  2**0
                  CONTENTS, READONLY, DEBUGGING
  4 .debug_info   00001b96  00000000  00000000  00000747  2**0
                  CONTENTS, READONLY, DEBUGGING
  5 .debug_abbrev 000006d6  00000000  00000000  000022dd  2**0
                  CONTENTS, READONLY, DEBUGGING
  6 .debug_line   0000094a  00000000  00000000  000029b3  2**0
                  CONTENTS, READONLY, DEBUGGING
  7 .debug_frame  00000104  00000000  00000000  00003300  2**2
                  CONTENTS, READONLY, DEBUGGING
  8 .debug_str    00000208  00000000  00000000  00003404  2**0
                  CONTENTS, READONLY, DEBUGGING
  9 .debug_loc    000003e8  00000000  00000000  0000360c  2**0
                  CONTENTS, READONLY, DEBUGGING
 10 .debug_ranges 00000070  00000000  00000000  000039f4  2**0
                  CONTENTS, READONLY, DEBUGGING
 11 .text         00000004  00000640  00000640  00000694  2**1
                  CONTENTS, ALLOC, LOAD, READONLY, CODE
 12 .note.gnu.avr.deviceinfo 00000040  00000000  00000000  00003a64  2**2
                  CONTENTS, READONLY, DEBUGGING
 13 .text.lcd_cmd 00000020  000005f0  000005f0  00000644  2**1
                  CONTENTS, ALLOC, LOAD, READONLY, CODE
 14 .text.lcd_data 0000005c  00000500  00000500  00000554  2**1
                  CONTENTS, ALLOC, LOAD, READONLY, CODE
 15 .text.lcd_adress 0000005c  0000055c  0000055c  000005b0  2**1
                  CONTENTS, ALLOC, LOAD, READONLY, CODE
 16 .text.lcd_init 00000014  00000610  00000610  00000664  2**1
                  CONTENTS, ALLOC, LOAD, READONLY, CODE
 17 .text.lcd_off_cursor 0000000e  00000624  00000624  00000678  2**1
                  CONTENTS, ALLOC, LOAD, READONLY, CODE
 18 .text.lcd_on_cursor 0000000e  00000632  00000632  00000686  2**1
                  CONTENTS, ALLOC, LOAD, READONLY, CODE
 19 .text.lcd_default 00000062  0000049e  0000049e  000004f2  2**1
                  CONTENTS, ALLOC, LOAD, READONLY, CODE
 20 .text.lcd_mod 0000041e  00000080  00000080  000000d4  2**1
                  CONTENTS, ALLOC, LOAD, READONLY, CODE
 21 .text.main    00000038  000005b8  000005b8  0000060c  2**1
                  CONTENTS, ALLOC, LOAD, READONLY, CODE

Disassembly of section .text:

00000000 <__vectors>:
   0:	0c 94 34 00 	jmp	0x68	; 0x68 <__ctors_end>
   4:	0c 94 20 03 	jmp	0x640	; 0x640 <__bad_interrupt>
   8:	0c 94 20 03 	jmp	0x640	; 0x640 <__bad_interrupt>
   c:	0c 94 20 03 	jmp	0x640	; 0x640 <__bad_interrupt>
  10:	0c 94 20 03 	jmp	0x640	; 0x640 <__bad_interrupt>
  14:	0c 94 20 03 	jmp	0x640	; 0x640 <__bad_interrupt>
  18:	0c 94 20 03 	jmp	0x640	; 0x640 <__bad_interrupt>
  1c:	0c 94 20 03 	jmp	0x640	; 0x640 <__bad_interrupt>
  20:	0c 94 20 03 	jmp	0x640	; 0x640 <__bad_interrupt>
  24:	0c 94 20 03 	jmp	0x640	; 0x640 <__bad_interrupt>
  28:	0c 94 20 03 	jmp	0x640	; 0x640 <__bad_interrupt>
  2c:	0c 94 20 03 	jmp	0x640	; 0x640 <__bad_interrupt>
  30:	0c 94 20 03 	jmp	0x640	; 0x640 <__bad_interrupt>
  34:	0c 94 20 03 	jmp	0x640	; 0x640 <__bad_interrupt>
  38:	0c 94 20 03 	jmp	0x640	; 0x640 <__bad_interrupt>
  3c:	0c 94 20 03 	jmp	0x640	; 0x640 <__bad_interrupt>
  40:	0c 94 20 03 	jmp	0x640	; 0x640 <__bad_interrupt>
  44:	0c 94 20 03 	jmp	0x640	; 0x640 <__bad_interrupt>
  48:	0c 94 20 03 	jmp	0x640	; 0x640 <__bad_interrupt>
  4c:	0c 94 20 03 	jmp	0x640	; 0x640 <__bad_interrupt>
  50:	0c 94 20 03 	jmp	0x640	; 0x640 <__bad_interrupt>
  54:	0c 94 20 03 	jmp	0x640	; 0x640 <__bad_interrupt>
  58:	0c 94 20 03 	jmp	0x640	; 0x640 <__bad_interrupt>
  5c:	0c 94 20 03 	jmp	0x640	; 0x640 <__bad_interrupt>
  60:	0c 94 20 03 	jmp	0x640	; 0x640 <__bad_interrupt>
  64:	0c 94 20 03 	jmp	0x640	; 0x640 <__bad_interrupt>

00000068 <__ctors_end>:
  68:	11 24       	eor	r1, r1
  6a:	1f be       	out	0x3f, r1	; 63
  6c:	cf ef       	ldi	r28, 0xFF	; 255
  6e:	d8 e0       	ldi	r29, 0x08	; 8
  70:	de bf       	out	0x3e, r29	; 62
  72:	cd bf       	out	0x3d, r28	; 61
  74:	0e 94 dc 02 	call	0x5b8	; 0x5b8 <main>
  78:	0c 94 3e 00 	jmp	0x7c	; 0x7c <_exit>

0000007c <_exit>:
  7c:	f8 94       	cli

0000007e <__stop_program>:
  7e:	ff cf       	rjmp	.-2      	; 0x7e <__stop_program>

Disassembly of section .text:

00000640 <__bad_interrupt>:
 640:	0c 94 00 00 	jmp	0	; 0x0 <__TEXT_REGION_ORIGIN__>

Disassembly of section .text.lcd_cmd:

000005f0 <lcd_cmd>:
void delay_2(){
	for(int i = 0;i<1000;i++){}
}
void lcd_cmd(unsigned char cmd){
	
	PORTB &= 0xF0;								// Mask preservation 4 LSBs
 5f0:	95 b1       	in	r25, 0x05	; 5
 5f2:	90 7f       	andi	r25, 0xF0	; 240
 5f4:	95 b9       	out	0x05, r25	; 5
	PORTB |= cmd;								// Add data command
 5f6:	95 b1       	in	r25, 0x05	; 5
 5f8:	89 2b       	or	r24, r25
 5fa:	85 b9       	out	0x05, r24	; 5
	
	PORTB &= ~(1<<PORTB5);						// Set RS = 0
 5fc:	85 b1       	in	r24, 0x05	; 5
 5fe:	8f 7d       	andi	r24, 0xDF	; 223
 600:	85 b9       	out	0x05, r24	; 5
	PORTB |= (1<<PORTB4);						// Set E = 1
 602:	85 b1       	in	r24, 0x05	; 5
 604:	80 61       	ori	r24, 0x10	; 16
 606:	85 b9       	out	0x05, r24	; 5
	delay_1();				
	PORTB &= ~(1<<PORTB4);						// Set E = 0 
 608:	85 b1       	in	r24, 0x05	; 5
 60a:	8f 7e       	andi	r24, 0xEF	; 239
 60c:	85 b9       	out	0x05, r24	; 5
 60e:	08 95       	ret

Disassembly of section .text.lcd_data:

00000500 <lcd_data>:
void delay_1(){
	for(int i = 0;i<200;i++){}
}
void delay_2(){
	for(int i = 0;i<1000;i++){}
}
 500:	95 b1       	in	r25, 0x05	; 5
 502:	90 62       	ori	r25, 0x20	; 32
 504:	95 b9       	out	0x05, r25	; 5
 506:	20 e0       	ldi	r18, 0x00	; 0
 508:	30 e0       	ldi	r19, 0x00	; 0
 50a:	21 c0       	rjmp	.+66     	; 0x54e <lcd_data+0x4e>
 50c:	21 15       	cp	r18, r1
 50e:	31 05       	cpc	r19, r1
 510:	81 f4       	brne	.+32     	; 0x532 <lcd_data+0x32>
 512:	95 b1       	in	r25, 0x05	; 5
 514:	90 7f       	andi	r25, 0xF0	; 240
 516:	95 b9       	out	0x05, r25	; 5
 518:	95 b1       	in	r25, 0x05	; 5
 51a:	48 2f       	mov	r20, r24
 51c:	42 95       	swap	r20
 51e:	4f 70       	andi	r20, 0x0F	; 15
 520:	94 2b       	or	r25, r20
 522:	95 b9       	out	0x05, r25	; 5
 524:	95 b1       	in	r25, 0x05	; 5
 526:	90 61       	ori	r25, 0x10	; 16
 528:	95 b9       	out	0x05, r25	; 5
 52a:	95 b1       	in	r25, 0x05	; 5
 52c:	9f 7e       	andi	r25, 0xEF	; 239
 52e:	95 b9       	out	0x05, r25	; 5
 530:	0c c0       	rjmp	.+24     	; 0x54a <lcd_data+0x4a>
 532:	95 b1       	in	r25, 0x05	; 5
 534:	90 7f       	andi	r25, 0xF0	; 240
 536:	95 b9       	out	0x05, r25	; 5
 538:	95 b1       	in	r25, 0x05	; 5
 53a:	98 2b       	or	r25, r24
 53c:	95 b9       	out	0x05, r25	; 5
 53e:	95 b1       	in	r25, 0x05	; 5
 540:	90 61       	ori	r25, 0x10	; 16
 542:	95 b9       	out	0x05, r25	; 5
 544:	95 b1       	in	r25, 0x05	; 5
 546:	9f 7e       	andi	r25, 0xEF	; 239
 548:	95 b9       	out	0x05, r25	; 5
 54a:	2f 5f       	subi	r18, 0xFF	; 255
 54c:	3f 4f       	sbci	r19, 0xFF	; 255
 54e:	22 30       	cpi	r18, 0x02	; 2
 550:	31 05       	cpc	r19, r1
 552:	e4 f2       	brlt	.-72     	; 0x50c <lcd_data+0xc>
 554:	85 b1       	in	r24, 0x05	; 5
 556:	8f 7d       	andi	r24, 0xDF	; 223
 558:	85 b9       	out	0x05, r24	; 5
 55a:	08 95       	ret

Disassembly of section .text.lcd_adress:

0000055c <lcd_adress>:
 55c:	95 b1       	in	r25, 0x05	; 5
 55e:	9f 7d       	andi	r25, 0xDF	; 223
 560:	95 b9       	out	0x05, r25	; 5
 562:	20 e0       	ldi	r18, 0x00	; 0
 564:	30 e0       	ldi	r19, 0x00	; 0
 566:	21 c0       	rjmp	.+66     	; 0x5aa <lcd_adress+0x4e>
 568:	21 15       	cp	r18, r1
 56a:	31 05       	cpc	r19, r1
 56c:	81 f4       	brne	.+32     	; 0x58e <lcd_adress+0x32>
 56e:	95 b1       	in	r25, 0x05	; 5
 570:	90 7f       	andi	r25, 0xF0	; 240
 572:	95 b9       	out	0x05, r25	; 5
 574:	95 b1       	in	r25, 0x05	; 5
 576:	48 2f       	mov	r20, r24
 578:	42 95       	swap	r20
 57a:	4f 70       	andi	r20, 0x0F	; 15
 57c:	94 2b       	or	r25, r20
 57e:	95 b9       	out	0x05, r25	; 5
 580:	95 b1       	in	r25, 0x05	; 5
 582:	90 61       	ori	r25, 0x10	; 16
 584:	95 b9       	out	0x05, r25	; 5
 586:	95 b1       	in	r25, 0x05	; 5
 588:	9f 7e       	andi	r25, 0xEF	; 239
 58a:	95 b9       	out	0x05, r25	; 5
 58c:	0c c0       	rjmp	.+24     	; 0x5a6 <lcd_adress+0x4a>
 58e:	95 b1       	in	r25, 0x05	; 5
 590:	90 7f       	andi	r25, 0xF0	; 240
 592:	95 b9       	out	0x05, r25	; 5
 594:	95 b1       	in	r25, 0x05	; 5
 596:	98 2b       	or	r25, r24
 598:	95 b9       	out	0x05, r25	; 5
 59a:	95 b1       	in	r25, 0x05	; 5
 59c:	90 61       	ori	r25, 0x10	; 16
 59e:	95 b9       	out	0x05, r25	; 5
 5a0:	95 b1       	in	r25, 0x05	; 5
 5a2:	9f 7e       	andi	r25, 0xEF	; 239
 5a4:	95 b9       	out	0x05, r25	; 5
 5a6:	2f 5f       	subi	r18, 0xFF	; 255
 5a8:	3f 4f       	sbci	r19, 0xFF	; 255
 5aa:	22 30       	cpi	r18, 0x02	; 2
 5ac:	31 05       	cpc	r19, r1
 5ae:	e4 f2       	brlt	.-72     	; 0x568 <lcd_adress+0xc>
 5b0:	85 b1       	in	r24, 0x05	; 5
 5b2:	8f 7d       	andi	r24, 0xDF	; 223
 5b4:	85 b9       	out	0x05, r24	; 5
 5b6:	08 95       	ret

Disassembly of section .text.lcd_init:

00000610 <lcd_init>:
	}
	PORTB &= ~(1<<PORTB5);					// Set RS = 0 
}
void lcd_init(){
	
	lcd_cmd(0x02);							//RS = 0 D7:D4 = 0010
 610:	82 e0       	ldi	r24, 0x02	; 2
 612:	0e 94 f8 02 	call	0x5f0	; 0x5f0 <lcd_cmd>
	lcd_cmd(0x02);							//RS = 0 D7:D4 = 0010
 616:	82 e0       	ldi	r24, 0x02	; 2
 618:	0e 94 f8 02 	call	0x5f0	; 0x5f0 <lcd_cmd>
	lcd_cmd(0x08);							//RS = 0 D7:D4 = 1000
 61c:	88 e0       	ldi	r24, 0x08	; 8
 61e:	0e 94 f8 02 	call	0x5f0	; 0x5f0 <lcd_cmd>
 622:	08 95       	ret

Disassembly of section .text.lcd_off_cursor:

00000624 <lcd_off_cursor>:
	
}

void lcd_off_cursor(){

	lcd_cmd(0x00);							//RS = 0 D7:D4 = 0000
 624:	80 e0       	ldi	r24, 0x00	; 0
 626:	0e 94 f8 02 	call	0x5f0	; 0x5f0 <lcd_cmd>
	lcd_cmd(0x0C);							//RS = 0 D7:D4 = 1100
 62a:	8c e0       	ldi	r24, 0x0C	; 12
 62c:	0e 94 f8 02 	call	0x5f0	; 0x5f0 <lcd_cmd>
 630:	08 95       	ret

Disassembly of section .text.lcd_on_cursor:

00000632 <lcd_on_cursor>:
}

void lcd_on_cursor(){
	
	lcd_cmd(0x00);							//RS = 0 D7:D4 = 0000
 632:	80 e0       	ldi	r24, 0x00	; 0
 634:	0e 94 f8 02 	call	0x5f0	; 0x5f0 <lcd_cmd>
	lcd_cmd(0x0F);							//RS = 0 D7:D4 = 1100
 638:	8f e0       	ldi	r24, 0x0F	; 15
 63a:	0e 94 f8 02 	call	0x5f0	; 0x5f0 <lcd_cmd>
 63e:	08 95       	ret

Disassembly of section .text.lcd_default:

0000049e <lcd_default>:
void delay_1(){
	for(int i = 0;i<200;i++){}
}
void delay_2(){
	for(int i = 0;i<1000;i++){}
}
 49e:	80 e8       	ldi	r24, 0x80	; 128
 4a0:	0e 94 ae 02 	call	0x55c	; 0x55c <lcd_adress>
 4a4:	8d e4       	ldi	r24, 0x4D	; 77
 4a6:	0e 94 80 02 	call	0x500	; 0x500 <lcd_data>
 4aa:	81 e8       	ldi	r24, 0x81	; 129
 4ac:	0e 94 ae 02 	call	0x55c	; 0x55c <lcd_adress>
 4b0:	8f e6       	ldi	r24, 0x6F	; 111
 4b2:	0e 94 80 02 	call	0x500	; 0x500 <lcd_data>
 4b6:	82 e8       	ldi	r24, 0x82	; 130
 4b8:	0e 94 ae 02 	call	0x55c	; 0x55c <lcd_adress>
 4bc:	84 e6       	ldi	r24, 0x64	; 100
 4be:	0e 94 80 02 	call	0x500	; 0x500 <lcd_data>
 4c2:	83 e8       	ldi	r24, 0x83	; 131
 4c4:	0e 94 ae 02 	call	0x55c	; 0x55c <lcd_adress>
 4c8:	8a e3       	ldi	r24, 0x3A	; 58
 4ca:	0e 94 80 02 	call	0x500	; 0x500 <lcd_data>
 4ce:	80 ec       	ldi	r24, 0xC0	; 192
 4d0:	0e 94 ae 02 	call	0x55c	; 0x55c <lcd_adress>
 4d4:	8d e4       	ldi	r24, 0x4D	; 77
 4d6:	0e 94 80 02 	call	0x500	; 0x500 <lcd_data>
 4da:	81 ec       	ldi	r24, 0xC1	; 193
 4dc:	0e 94 ae 02 	call	0x55c	; 0x55c <lcd_adress>
 4e0:	83 e7       	ldi	r24, 0x73	; 115
 4e2:	0e 94 80 02 	call	0x500	; 0x500 <lcd_data>
 4e6:	82 ec       	ldi	r24, 0xC2	; 194
 4e8:	0e 94 ae 02 	call	0x55c	; 0x55c <lcd_adress>
 4ec:	87 e6       	ldi	r24, 0x67	; 103
 4ee:	0e 94 80 02 	call	0x500	; 0x500 <lcd_data>
 4f2:	83 ec       	ldi	r24, 0xC3	; 195
 4f4:	0e 94 ae 02 	call	0x55c	; 0x55c <lcd_adress>
 4f8:	8a e3       	ldi	r24, 0x3A	; 58
 4fa:	0e 94 80 02 	call	0x500	; 0x500 <lcd_data>
 4fe:	08 95       	ret

Disassembly of section .text.lcd_mod:

00000080 <lcd_mod>:
  80:	82 30       	cpi	r24, 0x02	; 2
  82:	91 05       	cpc	r25, r1
  84:	09 f4       	brne	.+2      	; 0x88 <lcd_mod+0x8>
  86:	8b c0       	rjmp	.+278    	; 0x19e <lcd_mod+0x11e>
  88:	1c f4       	brge	.+6      	; 0x90 <lcd_mod+0x10>
  8a:	01 97       	sbiw	r24, 0x01	; 1
  8c:	49 f0       	breq	.+18     	; 0xa0 <lcd_mod+0x20>
  8e:	08 95       	ret
  90:	83 30       	cpi	r24, 0x03	; 3
  92:	91 05       	cpc	r25, r1
  94:	09 f4       	brne	.+2      	; 0x98 <lcd_mod+0x18>
  96:	05 c1       	rjmp	.+522    	; 0x2a2 <lcd_mod+0x222>
  98:	04 97       	sbiw	r24, 0x04	; 4
  9a:	09 f4       	brne	.+2      	; 0x9e <lcd_mod+0x1e>
  9c:	81 c1       	rjmp	.+770    	; 0x3a0 <lcd_mod+0x320>
  9e:	08 95       	ret
  a0:	85 e8       	ldi	r24, 0x85	; 133
  a2:	0e 94 ae 02 	call	0x55c	; 0x55c <lcd_adress>
  a6:	81 e4       	ldi	r24, 0x41	; 65
  a8:	0e 94 80 02 	call	0x500	; 0x500 <lcd_data>
  ac:	86 e8       	ldi	r24, 0x86	; 134
  ae:	0e 94 ae 02 	call	0x55c	; 0x55c <lcd_adress>
  b2:	8d e4       	ldi	r24, 0x4D	; 77
  b4:	0e 94 80 02 	call	0x500	; 0x500 <lcd_data>
  b8:	87 e8       	ldi	r24, 0x87	; 135
  ba:	0e 94 ae 02 	call	0x55c	; 0x55c <lcd_adress>
  be:	81 e0       	ldi	r24, 0x01	; 1
  c0:	0e 94 80 02 	call	0x500	; 0x500 <lcd_data>
  c4:	89 e8       	ldi	r24, 0x89	; 137
  c6:	0e 94 ae 02 	call	0x55c	; 0x55c <lcd_adress>
  ca:	86 e4       	ldi	r24, 0x46	; 70
  cc:	0e 94 80 02 	call	0x500	; 0x500 <lcd_data>
  d0:	8a e8       	ldi	r24, 0x8A	; 138
  d2:	0e 94 ae 02 	call	0x55c	; 0x55c <lcd_adress>
  d6:	8a e3       	ldi	r24, 0x3A	; 58
  d8:	0e 94 80 02 	call	0x500	; 0x500 <lcd_data>
  dc:	8d e8       	ldi	r24, 0x8D	; 141
  de:	0e 94 ae 02 	call	0x55c	; 0x55c <lcd_adress>
  e2:	80 eb       	ldi	r24, 0xB0	; 176
  e4:	0e 94 80 02 	call	0x500	; 0x500 <lcd_data>
  e8:	8c e8       	ldi	r24, 0x8C	; 140
  ea:	0e 94 ae 02 	call	0x55c	; 0x55c <lcd_adress>
  ee:	80 eb       	ldi	r24, 0xB0	; 176
  f0:	0e 94 80 02 	call	0x500	; 0x500 <lcd_data>
  f4:	8b e8       	ldi	r24, 0x8B	; 139
  f6:	0e 94 ae 02 	call	0x55c	; 0x55c <lcd_adress>
  fa:	80 eb       	ldi	r24, 0xB0	; 176
  fc:	0e 94 80 02 	call	0x500	; 0x500 <lcd_data>
 100:	8e e8       	ldi	r24, 0x8E	; 142
 102:	0e 94 ae 02 	call	0x55c	; 0x55c <lcd_adress>
 106:	88 e4       	ldi	r24, 0x48	; 72
 108:	0e 94 80 02 	call	0x500	; 0x500 <lcd_data>
 10c:	8f e8       	ldi	r24, 0x8F	; 143
 10e:	0e 94 ae 02 	call	0x55c	; 0x55c <lcd_adress>
 112:	8a e7       	ldi	r24, 0x7A	; 122
 114:	0e 94 80 02 	call	0x500	; 0x500 <lcd_data>
 118:	85 ec       	ldi	r24, 0xC5	; 197
 11a:	0e 94 ae 02 	call	0x55c	; 0x55c <lcd_adress>
 11e:	80 eb       	ldi	r24, 0xB0	; 176
 120:	0e 94 80 02 	call	0x500	; 0x500 <lcd_data>
 124:	86 ec       	ldi	r24, 0xC6	; 198
 126:	0e 94 ae 02 	call	0x55c	; 0x55c <lcd_adress>
 12a:	80 eb       	ldi	r24, 0xB0	; 176
 12c:	0e 94 80 02 	call	0x500	; 0x500 <lcd_data>
 130:	87 ec       	ldi	r24, 0xC7	; 199
 132:	0e 94 ae 02 	call	0x55c	; 0x55c <lcd_adress>
 136:	80 eb       	ldi	r24, 0xB0	; 176
 138:	0e 94 80 02 	call	0x500	; 0x500 <lcd_data>
 13c:	88 ec       	ldi	r24, 0xC8	; 200
 13e:	0e 94 ae 02 	call	0x55c	; 0x55c <lcd_adress>
 142:	81 e0       	ldi	r24, 0x01	; 1
 144:	0e 94 80 02 	call	0x500	; 0x500 <lcd_data>
 148:	89 ec       	ldi	r24, 0xC9	; 201
 14a:	0e 94 ae 02 	call	0x55c	; 0x55c <lcd_adress>
 14e:	81 e0       	ldi	r24, 0x01	; 1
 150:	0e 94 80 02 	call	0x500	; 0x500 <lcd_data>
 154:	8a ec       	ldi	r24, 0xCA	; 202
 156:	0e 94 ae 02 	call	0x55c	; 0x55c <lcd_adress>
 15a:	81 e0       	ldi	r24, 0x01	; 1
 15c:	0e 94 80 02 	call	0x500	; 0x500 <lcd_data>
 160:	8b ec       	ldi	r24, 0xCB	; 203
 162:	0e 94 ae 02 	call	0x55c	; 0x55c <lcd_adress>
 166:	81 e0       	ldi	r24, 0x01	; 1
 168:	0e 94 80 02 	call	0x500	; 0x500 <lcd_data>
 16c:	8c ec       	ldi	r24, 0xCC	; 204
 16e:	0e 94 ae 02 	call	0x55c	; 0x55c <lcd_adress>
 172:	81 e0       	ldi	r24, 0x01	; 1
 174:	0e 94 80 02 	call	0x500	; 0x500 <lcd_data>
 178:	8d ec       	ldi	r24, 0xCD	; 205
 17a:	0e 94 ae 02 	call	0x55c	; 0x55c <lcd_adress>
 17e:	81 e0       	ldi	r24, 0x01	; 1
 180:	0e 94 80 02 	call	0x500	; 0x500 <lcd_data>
 184:	8e ec       	ldi	r24, 0xCE	; 206
 186:	0e 94 ae 02 	call	0x55c	; 0x55c <lcd_adress>
 18a:	81 e0       	ldi	r24, 0x01	; 1
 18c:	0e 94 80 02 	call	0x500	; 0x500 <lcd_data>
 190:	8f ec       	ldi	r24, 0xCF	; 207
 192:	0e 94 ae 02 	call	0x55c	; 0x55c <lcd_adress>
 196:	81 e0       	ldi	r24, 0x01	; 1
 198:	0e 94 80 02 	call	0x500	; 0x500 <lcd_data>
 19c:	08 95       	ret
 19e:	85 e8       	ldi	r24, 0x85	; 133
 1a0:	0e 94 ae 02 	call	0x55c	; 0x55c <lcd_adress>
 1a4:	86 e4       	ldi	r24, 0x46	; 70
 1a6:	0e 94 80 02 	call	0x500	; 0x500 <lcd_data>
 1aa:	86 e8       	ldi	r24, 0x86	; 134
 1ac:	0e 94 ae 02 	call	0x55c	; 0x55c <lcd_adress>
 1b0:	8d e4       	ldi	r24, 0x4D	; 77
 1b2:	0e 94 80 02 	call	0x500	; 0x500 <lcd_data>
 1b6:	87 e8       	ldi	r24, 0x87	; 135
 1b8:	0e 94 ae 02 	call	0x55c	; 0x55c <lcd_adress>
 1bc:	81 e0       	ldi	r24, 0x01	; 1
 1be:	0e 94 80 02 	call	0x500	; 0x500 <lcd_data>
 1c2:	89 e8       	ldi	r24, 0x89	; 137
 1c4:	0e 94 ae 02 	call	0x55c	; 0x55c <lcd_adress>
 1c8:	89 e8       	ldi	r24, 0x89	; 137
 1ca:	0e 94 ae 02 	call	0x55c	; 0x55c <lcd_adress>
 1ce:	86 e4       	ldi	r24, 0x46	; 70
 1d0:	0e 94 80 02 	call	0x500	; 0x500 <lcd_data>
 1d4:	8a e8       	ldi	r24, 0x8A	; 138
 1d6:	0e 94 ae 02 	call	0x55c	; 0x55c <lcd_adress>
 1da:	8a e3       	ldi	r24, 0x3A	; 58
 1dc:	0e 94 80 02 	call	0x500	; 0x500 <lcd_data>
 1e0:	8d e8       	ldi	r24, 0x8D	; 141
 1e2:	0e 94 ae 02 	call	0x55c	; 0x55c <lcd_adress>
 1e6:	80 eb       	ldi	r24, 0xB0	; 176
 1e8:	0e 94 80 02 	call	0x500	; 0x500 <lcd_data>
 1ec:	8c e8       	ldi	r24, 0x8C	; 140
 1ee:	0e 94 ae 02 	call	0x55c	; 0x55c <lcd_adress>
 1f2:	80 eb       	ldi	r24, 0xB0	; 176
 1f4:	0e 94 80 02 	call	0x500	; 0x500 <lcd_data>
 1f8:	8b e8       	ldi	r24, 0x8B	; 139
 1fa:	0e 94 ae 02 	call	0x55c	; 0x55c <lcd_adress>
 1fe:	80 eb       	ldi	r24, 0xB0	; 176
 200:	0e 94 80 02 	call	0x500	; 0x500 <lcd_data>
 204:	8e e8       	ldi	r24, 0x8E	; 142
 206:	0e 94 ae 02 	call	0x55c	; 0x55c <lcd_adress>
 20a:	88 e4       	ldi	r24, 0x48	; 72
 20c:	0e 94 80 02 	call	0x500	; 0x500 <lcd_data>
 210:	8f e8       	ldi	r24, 0x8F	; 143
 212:	0e 94 ae 02 	call	0x55c	; 0x55c <lcd_adress>
 216:	8a e7       	ldi	r24, 0x7A	; 122
 218:	0e 94 80 02 	call	0x500	; 0x500 <lcd_data>
 21c:	85 ec       	ldi	r24, 0xC5	; 197
 21e:	0e 94 ae 02 	call	0x55c	; 0x55c <lcd_adress>
 222:	80 eb       	ldi	r24, 0xB0	; 176
 224:	0e 94 80 02 	call	0x500	; 0x500 <lcd_data>
 228:	86 ec       	ldi	r24, 0xC6	; 198
 22a:	0e 94 ae 02 	call	0x55c	; 0x55c <lcd_adress>
 22e:	80 eb       	ldi	r24, 0xB0	; 176
 230:	0e 94 80 02 	call	0x500	; 0x500 <lcd_data>
 234:	87 ec       	ldi	r24, 0xC7	; 199
 236:	0e 94 ae 02 	call	0x55c	; 0x55c <lcd_adress>
 23a:	80 eb       	ldi	r24, 0xB0	; 176
 23c:	0e 94 80 02 	call	0x500	; 0x500 <lcd_data>
 240:	88 ec       	ldi	r24, 0xC8	; 200
 242:	0e 94 ae 02 	call	0x55c	; 0x55c <lcd_adress>
 246:	81 e0       	ldi	r24, 0x01	; 1
 248:	0e 94 80 02 	call	0x500	; 0x500 <lcd_data>
 24c:	89 ec       	ldi	r24, 0xC9	; 201
 24e:	0e 94 ae 02 	call	0x55c	; 0x55c <lcd_adress>
 252:	81 e0       	ldi	r24, 0x01	; 1
 254:	0e 94 80 02 	call	0x500	; 0x500 <lcd_data>
 258:	8a ec       	ldi	r24, 0xCA	; 202
 25a:	0e 94 ae 02 	call	0x55c	; 0x55c <lcd_adress>
 25e:	81 e0       	ldi	r24, 0x01	; 1
 260:	0e 94 80 02 	call	0x500	; 0x500 <lcd_data>
 264:	8b ec       	ldi	r24, 0xCB	; 203
 266:	0e 94 ae 02 	call	0x55c	; 0x55c <lcd_adress>
 26a:	81 e0       	ldi	r24, 0x01	; 1
 26c:	0e 94 80 02 	call	0x500	; 0x500 <lcd_data>
 270:	8c ec       	ldi	r24, 0xCC	; 204
 272:	0e 94 ae 02 	call	0x55c	; 0x55c <lcd_adress>
 276:	81 e0       	ldi	r24, 0x01	; 1
 278:	0e 94 80 02 	call	0x500	; 0x500 <lcd_data>
 27c:	8d ec       	ldi	r24, 0xCD	; 205
 27e:	0e 94 ae 02 	call	0x55c	; 0x55c <lcd_adress>
 282:	81 e0       	ldi	r24, 0x01	; 1
 284:	0e 94 80 02 	call	0x500	; 0x500 <lcd_data>
 288:	8e ec       	ldi	r24, 0xCE	; 206
 28a:	0e 94 ae 02 	call	0x55c	; 0x55c <lcd_adress>
 28e:	81 e0       	ldi	r24, 0x01	; 1
 290:	0e 94 80 02 	call	0x500	; 0x500 <lcd_data>
 294:	8f ec       	ldi	r24, 0xCF	; 207
 296:	0e 94 ae 02 	call	0x55c	; 0x55c <lcd_adress>
 29a:	81 e0       	ldi	r24, 0x01	; 1
 29c:	0e 94 80 02 	call	0x500	; 0x500 <lcd_data>
 2a0:	08 95       	ret
 2a2:	85 e8       	ldi	r24, 0x85	; 133
 2a4:	0e 94 ae 02 	call	0x55c	; 0x55c <lcd_adress>
 2a8:	81 e4       	ldi	r24, 0x41	; 65
 2aa:	0e 94 80 02 	call	0x500	; 0x500 <lcd_data>
 2ae:	86 e8       	ldi	r24, 0x86	; 134
 2b0:	0e 94 ae 02 	call	0x55c	; 0x55c <lcd_adress>
 2b4:	83 e5       	ldi	r24, 0x53	; 83
 2b6:	0e 94 80 02 	call	0x500	; 0x500 <lcd_data>
 2ba:	87 e8       	ldi	r24, 0x87	; 135
 2bc:	0e 94 ae 02 	call	0x55c	; 0x55c <lcd_adress>
 2c0:	8b e4       	ldi	r24, 0x4B	; 75
 2c2:	0e 94 80 02 	call	0x500	; 0x500 <lcd_data>
 2c6:	89 e8       	ldi	r24, 0x89	; 137
 2c8:	0e 94 ae 02 	call	0x55c	; 0x55c <lcd_adress>
 2cc:	84 e5       	ldi	r24, 0x54	; 84
 2ce:	0e 94 80 02 	call	0x500	; 0x500 <lcd_data>
 2d2:	8a e8       	ldi	r24, 0x8A	; 138
 2d4:	0e 94 ae 02 	call	0x55c	; 0x55c <lcd_adress>
 2d8:	8a e3       	ldi	r24, 0x3A	; 58
 2da:	0e 94 80 02 	call	0x500	; 0x500 <lcd_data>
 2de:	8d e8       	ldi	r24, 0x8D	; 141
 2e0:	0e 94 ae 02 	call	0x55c	; 0x55c <lcd_adress>
 2e4:	80 eb       	ldi	r24, 0xB0	; 176
 2e6:	0e 94 80 02 	call	0x500	; 0x500 <lcd_data>
 2ea:	8c e8       	ldi	r24, 0x8C	; 140
 2ec:	0e 94 ae 02 	call	0x55c	; 0x55c <lcd_adress>
 2f0:	80 eb       	ldi	r24, 0xB0	; 176
 2f2:	0e 94 80 02 	call	0x500	; 0x500 <lcd_data>
 2f6:	8b e8       	ldi	r24, 0x8B	; 139
 2f8:	0e 94 ae 02 	call	0x55c	; 0x55c <lcd_adress>
 2fc:	80 eb       	ldi	r24, 0xB0	; 176
 2fe:	0e 94 80 02 	call	0x500	; 0x500 <lcd_data>
 302:	8e e8       	ldi	r24, 0x8E	; 142
 304:	0e 94 ae 02 	call	0x55c	; 0x55c <lcd_adress>
 308:	82 e6       	ldi	r24, 0x62	; 98
 30a:	0e 94 80 02 	call	0x500	; 0x500 <lcd_data>
 30e:	8f e8       	ldi	r24, 0x8F	; 143
 310:	0e 94 ae 02 	call	0x55c	; 0x55c <lcd_adress>
 314:	83 e7       	ldi	r24, 0x73	; 115
 316:	0e 94 80 02 	call	0x500	; 0x500 <lcd_data>
 31a:	85 ec       	ldi	r24, 0xC5	; 197
 31c:	0e 94 ae 02 	call	0x55c	; 0x55c <lcd_adress>
 320:	80 eb       	ldi	r24, 0xB0	; 176
 322:	0e 94 80 02 	call	0x500	; 0x500 <lcd_data>
 326:	86 ec       	ldi	r24, 0xC6	; 198
 328:	0e 94 ae 02 	call	0x55c	; 0x55c <lcd_adress>
 32c:	80 eb       	ldi	r24, 0xB0	; 176
 32e:	0e 94 80 02 	call	0x500	; 0x500 <lcd_data>
 332:	87 ec       	ldi	r24, 0xC7	; 199
 334:	0e 94 ae 02 	call	0x55c	; 0x55c <lcd_adress>
 338:	8e e2       	ldi	r24, 0x2E	; 46
 33a:	0e 94 80 02 	call	0x500	; 0x500 <lcd_data>
 33e:	88 ec       	ldi	r24, 0xC8	; 200
 340:	0e 94 ae 02 	call	0x55c	; 0x55c <lcd_adress>
 344:	80 eb       	ldi	r24, 0xB0	; 176
 346:	0e 94 80 02 	call	0x500	; 0x500 <lcd_data>
 34a:	89 ec       	ldi	r24, 0xC9	; 201
 34c:	0e 94 ae 02 	call	0x55c	; 0x55c <lcd_adress>
 350:	80 eb       	ldi	r24, 0xB0	; 176
 352:	0e 94 80 02 	call	0x500	; 0x500 <lcd_data>
 356:	8a ec       	ldi	r24, 0xCA	; 202
 358:	0e 94 ae 02 	call	0x55c	; 0x55c <lcd_adress>
 35c:	8e e2       	ldi	r24, 0x2E	; 46
 35e:	0e 94 80 02 	call	0x500	; 0x500 <lcd_data>
 362:	8b ec       	ldi	r24, 0xCB	; 203
 364:	0e 94 ae 02 	call	0x55c	; 0x55c <lcd_adress>
 368:	80 eb       	ldi	r24, 0xB0	; 176
 36a:	0e 94 80 02 	call	0x500	; 0x500 <lcd_data>
 36e:	8c ec       	ldi	r24, 0xCC	; 204
 370:	0e 94 ae 02 	call	0x55c	; 0x55c <lcd_adress>
 374:	80 eb       	ldi	r24, 0xB0	; 176
 376:	0e 94 80 02 	call	0x500	; 0x500 <lcd_data>
 37a:	8d ec       	ldi	r24, 0xCD	; 205
 37c:	0e 94 ae 02 	call	0x55c	; 0x55c <lcd_adress>
 380:	8e e2       	ldi	r24, 0x2E	; 46
 382:	0e 94 80 02 	call	0x500	; 0x500 <lcd_data>
 386:	8e ec       	ldi	r24, 0xCE	; 206
 388:	0e 94 ae 02 	call	0x55c	; 0x55c <lcd_adress>
 38c:	80 eb       	ldi	r24, 0xB0	; 176
 38e:	0e 94 80 02 	call	0x500	; 0x500 <lcd_data>
 392:	8f ec       	ldi	r24, 0xCF	; 207
 394:	0e 94 ae 02 	call	0x55c	; 0x55c <lcd_adress>
 398:	80 eb       	ldi	r24, 0xB0	; 176
 39a:	0e 94 80 02 	call	0x500	; 0x500 <lcd_data>
 39e:	08 95       	ret
 3a0:	85 e8       	ldi	r24, 0x85	; 133
 3a2:	0e 94 ae 02 	call	0x55c	; 0x55c <lcd_adress>
 3a6:	86 e4       	ldi	r24, 0x46	; 70
 3a8:	0e 94 80 02 	call	0x500	; 0x500 <lcd_data>
 3ac:	86 e8       	ldi	r24, 0x86	; 134
 3ae:	0e 94 ae 02 	call	0x55c	; 0x55c <lcd_adress>
 3b2:	83 e5       	ldi	r24, 0x53	; 83
 3b4:	0e 94 80 02 	call	0x500	; 0x500 <lcd_data>
 3b8:	87 e8       	ldi	r24, 0x87	; 135
 3ba:	0e 94 ae 02 	call	0x55c	; 0x55c <lcd_adress>
 3be:	8b e4       	ldi	r24, 0x4B	; 75
 3c0:	0e 94 80 02 	call	0x500	; 0x500 <lcd_data>
 3c4:	89 e8       	ldi	r24, 0x89	; 137
 3c6:	0e 94 ae 02 	call	0x55c	; 0x55c <lcd_adress>
 3ca:	84 e5       	ldi	r24, 0x54	; 84
 3cc:	0e 94 80 02 	call	0x500	; 0x500 <lcd_data>
 3d0:	8a e8       	ldi	r24, 0x8A	; 138
 3d2:	0e 94 ae 02 	call	0x55c	; 0x55c <lcd_adress>
 3d6:	8a e3       	ldi	r24, 0x3A	; 58
 3d8:	0e 94 80 02 	call	0x500	; 0x500 <lcd_data>
 3dc:	8d e8       	ldi	r24, 0x8D	; 141
 3de:	0e 94 ae 02 	call	0x55c	; 0x55c <lcd_adress>
 3e2:	80 eb       	ldi	r24, 0xB0	; 176
 3e4:	0e 94 80 02 	call	0x500	; 0x500 <lcd_data>
 3e8:	8c e8       	ldi	r24, 0x8C	; 140
 3ea:	0e 94 ae 02 	call	0x55c	; 0x55c <lcd_adress>
 3ee:	80 eb       	ldi	r24, 0xB0	; 176
 3f0:	0e 94 80 02 	call	0x500	; 0x500 <lcd_data>
 3f4:	8b e8       	ldi	r24, 0x8B	; 139
 3f6:	0e 94 ae 02 	call	0x55c	; 0x55c <lcd_adress>
 3fa:	80 eb       	ldi	r24, 0xB0	; 176
 3fc:	0e 94 80 02 	call	0x500	; 0x500 <lcd_data>
 400:	8e e8       	ldi	r24, 0x8E	; 142
 402:	0e 94 ae 02 	call	0x55c	; 0x55c <lcd_adress>
 406:	82 e6       	ldi	r24, 0x62	; 98
 408:	0e 94 80 02 	call	0x500	; 0x500 <lcd_data>
 40c:	8f e8       	ldi	r24, 0x8F	; 143
 40e:	0e 94 ae 02 	call	0x55c	; 0x55c <lcd_adress>
 412:	83 e7       	ldi	r24, 0x73	; 115
 414:	0e 94 80 02 	call	0x500	; 0x500 <lcd_data>
 418:	85 ec       	ldi	r24, 0xC5	; 197
 41a:	0e 94 ae 02 	call	0x55c	; 0x55c <lcd_adress>
 41e:	80 eb       	ldi	r24, 0xB0	; 176
 420:	0e 94 80 02 	call	0x500	; 0x500 <lcd_data>
 424:	86 ec       	ldi	r24, 0xC6	; 198
 426:	0e 94 ae 02 	call	0x55c	; 0x55c <lcd_adress>
 42a:	80 eb       	ldi	r24, 0xB0	; 176
 42c:	0e 94 80 02 	call	0x500	; 0x500 <lcd_data>
 430:	87 ec       	ldi	r24, 0xC7	; 199
 432:	0e 94 ae 02 	call	0x55c	; 0x55c <lcd_adress>
 436:	8e e2       	ldi	r24, 0x2E	; 46
 438:	0e 94 80 02 	call	0x500	; 0x500 <lcd_data>
 43c:	88 ec       	ldi	r24, 0xC8	; 200
 43e:	0e 94 ae 02 	call	0x55c	; 0x55c <lcd_adress>
 442:	80 eb       	ldi	r24, 0xB0	; 176
 444:	0e 94 80 02 	call	0x500	; 0x500 <lcd_data>
 448:	89 ec       	ldi	r24, 0xC9	; 201
 44a:	0e 94 ae 02 	call	0x55c	; 0x55c <lcd_adress>
 44e:	80 eb       	ldi	r24, 0xB0	; 176
 450:	0e 94 80 02 	call	0x500	; 0x500 <lcd_data>
 454:	8a ec       	ldi	r24, 0xCA	; 202
 456:	0e 94 ae 02 	call	0x55c	; 0x55c <lcd_adress>
 45a:	8e e2       	ldi	r24, 0x2E	; 46
 45c:	0e 94 80 02 	call	0x500	; 0x500 <lcd_data>
 460:	8b ec       	ldi	r24, 0xCB	; 203
 462:	0e 94 ae 02 	call	0x55c	; 0x55c <lcd_adress>
 466:	80 eb       	ldi	r24, 0xB0	; 176
 468:	0e 94 80 02 	call	0x500	; 0x500 <lcd_data>
 46c:	8c ec       	ldi	r24, 0xCC	; 204
 46e:	0e 94 ae 02 	call	0x55c	; 0x55c <lcd_adress>
 472:	80 eb       	ldi	r24, 0xB0	; 176
 474:	0e 94 80 02 	call	0x500	; 0x500 <lcd_data>
 478:	8d ec       	ldi	r24, 0xCD	; 205
 47a:	0e 94 ae 02 	call	0x55c	; 0x55c <lcd_adress>
 47e:	8e e2       	ldi	r24, 0x2E	; 46
 480:	0e 94 80 02 	call	0x500	; 0x500 <lcd_data>
 484:	8e ec       	ldi	r24, 0xCE	; 206
 486:	0e 94 ae 02 	call	0x55c	; 0x55c <lcd_adress>
 48a:	80 eb       	ldi	r24, 0xB0	; 176
 48c:	0e 94 80 02 	call	0x500	; 0x500 <lcd_data>
 490:	8f ec       	ldi	r24, 0xCF	; 207
 492:	0e 94 ae 02 	call	0x55c	; 0x55c <lcd_adress>
 496:	80 eb       	ldi	r24, 0xB0	; 176
 498:	0e 94 80 02 	call	0x500	; 0x500 <lcd_data>
 49c:	08 95       	ret

Disassembly of section .text.main:

000005b8 <main>:
 5b8:	8f ef       	ldi	r24, 0xFF	; 255
 5ba:	84 b9       	out	0x04, r24	; 4
 5bc:	87 b9       	out	0x07, r24	; 7
 5be:	80 ef       	ldi	r24, 0xF0	; 240
 5c0:	85 b9       	out	0x05, r24	; 5
 5c2:	8f ea       	ldi	r24, 0xAF	; 175
 5c4:	88 b9       	out	0x08, r24	; 8
 5c6:	0e 94 08 03 	call	0x610	; 0x610 <lcd_init>
 5ca:	0e 94 12 03 	call	0x624	; 0x624 <lcd_off_cursor>
 5ce:	0e 94 19 03 	call	0x632	; 0x632 <lcd_on_cursor>
 5d2:	0e 94 4f 02 	call	0x49e	; 0x49e <lcd_default>
 5d6:	c0 e0       	ldi	r28, 0x00	; 0
 5d8:	d0 e0       	ldi	r29, 0x00	; 0
 5da:	02 c0       	rjmp	.+4      	; 0x5e0 <main+0x28>
 5dc:	c0 e0       	ldi	r28, 0x00	; 0
 5de:	d0 e0       	ldi	r29, 0x00	; 0
 5e0:	21 96       	adiw	r28, 0x01	; 1
 5e2:	ce 01       	movw	r24, r28
 5e4:	0e 94 40 00 	call	0x80	; 0x80 <__data_load_end>
 5e8:	c4 30       	cpi	r28, 0x04	; 4
 5ea:	d1 05       	cpc	r29, r1
 5ec:	c9 f7       	brne	.-14     	; 0x5e0 <main+0x28>
 5ee:	f6 cf       	rjmp	.-20     	; 0x5dc <main+0x24>
